target datalayout = "e-m:e-p270:32:32-p271:32:32-p272:64:64-i64:64-i128:128-f80:128-n8:16:32:64-S128"
target triple = "x86_64-pc-linux-gnu"

%"struct.gmx::GridSet::DomainSetup" = type { i32, i8, i8, %"struct.std::array", ptr }
%"struct.std::array" = type { [3 x i8] }
%"class.gmx::BasicVector" = type { [3 x i32] }

; Function Attrs: mustprogress nounwind uwtable
define linkonce_odr noundef nonnull align 1 dereferenceable(1) ptr @_ZNSt14__array_traitsIbLm3EE6_S_refERA3_Kbm(ptr noundef nonnull align 1 dereferenceable(3) %0, i64 noundef %1) #1 comdat align 2 {
  %3 = alloca ptr, align 8
  %4 = alloca i64, align 8
  store ptr %0, ptr %3, align 8, !tbaa !33
  store i64 %1, ptr %4, align 8, !tbaa !31
  %5 = load ptr, ptr %3, align 8, !tbaa !33
  %6 = load i64, ptr %4, align 8, !tbaa !31
  %7 = getelementptr inbounds nuw [3 x i8], ptr %5, i64 0, i64 %6
  ret ptr %7
}

; Function Attrs: mustprogress nounwind uwtable
define linkonce_odr noundef nonnull align 1 dereferenceable(1) ptr @_ZNSt5arrayIbLm3EEixEm(ptr noundef nonnull align 1 dereferenceable(3) %0, i64 noundef %1) #1 comdat align 2 {
  %3 = alloca ptr, align 8
  %4 = alloca i64, align 8
  store ptr %0, ptr %3, align 8, !tbaa !29
  store i64 %1, ptr %4, align 8, !tbaa !31
  %5 = load ptr, ptr %3, align 8
  %6 = getelementptr inbounds nuw %"struct.std::array", ptr %5, i32 0, i32 0
  %7 = load i64, ptr %4, align 8, !tbaa !31
  %8 = call noundef nonnull align 1 dereferenceable(1) ptr @_ZNSt14__array_traitsIbLm3EE6_S_refERA3_Kbm(ptr noundef nonnull align 1 dereferenceable(3) %6, i64 noundef %7) #15
  ret ptr %8
}

; Function Attrs: mustprogress nounwind uwtable
define linkonce_odr noundef i32 @_ZNK3gmx11BasicVectorIiEixEi(ptr noundef nonnull align 4 dereferenceable(12) %0, i32 noundef %1) #1 comdat align 2 {
  %3 = alloca ptr, align 8
  %4 = alloca i32, align 4
  store ptr %0, ptr %3, align 8, !tbaa !13
  store i32 %1, ptr %4, align 4, !tbaa !25
  %5 = load ptr, ptr %3, align 8
  %6 = getelementptr inbounds nuw %"class.gmx::BasicVector", ptr %5, i32 0, i32 0
  %7 = load i32, ptr %4, align 4, !tbaa !25
  %8 = sext i32 %7 to i64
  %9 = getelementptr inbounds [3 x i32], ptr %6, i64 0, i64 %8
  %10 = load i32, ptr %9, align 4, !tbaa !25
  ret i32 %10
}

; Function Attrs: mustprogress uwtable
define void @_ZN3gmx7GridSet11DomainSetupC2E7PbcTypebPKNS_11BasicVectorIiEEPKNS_11DomdecZonesE(ptr noundef nonnull align 8 dereferenceable(24) %0, i32 noundef %1, i1 noundef zeroext %2, ptr noundef %3, ptr noundef %4) unnamed_addr #0 align 2 {
  %6 = alloca ptr, align 8
  %7 = alloca i32, align 4
  %8 = alloca i8, align 1
  %9 = alloca ptr, align 8
  %10 = alloca ptr, align 8
  %11 = alloca i32, align 4
  store ptr %0, ptr %6, align 8, !tbaa !4
  store i32 %1, ptr %7, align 4, !tbaa !9
  %12 = zext i1 %2 to i8
  store i8 %12, ptr %8, align 1, !tbaa !11
  store ptr %3, ptr %9, align 8, !tbaa !13
  store ptr %4, ptr %10, align 8, !tbaa !15
  %13 = load ptr, ptr %6, align 8
  %14 = getelementptr inbounds nuw %"struct.gmx::GridSet::DomainSetup", ptr %13, i32 0, i32 0
  %15 = load i32, ptr %7, align 4, !tbaa !9
  store i32 %15, ptr %14, align 8, !tbaa !17
  %16 = getelementptr inbounds nuw %"struct.gmx::GridSet::DomainSetup", ptr %13, i32 0, i32 1
  %17 = load i8, ptr %8, align 1, !tbaa !11, !range !20, !noundef !21
  %18 = trunc i8 %17 to i1
  %19 = zext i1 %18 to i8
  store i8 %19, ptr %16, align 4, !tbaa !22
  %20 = getelementptr inbounds nuw %"struct.gmx::GridSet::DomainSetup", ptr %13, i32 0, i32 2
  %21 = load ptr, ptr %9, align 8, !tbaa !13
  %22 = icmp ne ptr %21, null
  br i1 %22, label %23, label %33

23:                                               ; preds = %5
  %24 = load ptr, ptr %9, align 8, !tbaa !13
  %25 = call noundef i32 @_ZNK3gmx11BasicVectorIiEixEi(ptr noundef nonnull align 4 dereferenceable(12) %24, i32 noundef 0)
  %26 = load ptr, ptr %9, align 8, !tbaa !13
  %27 = call noundef i32 @_ZNK3gmx11BasicVectorIiEixEi(ptr noundef nonnull align 4 dereferenceable(12) %26, i32 noundef 1)
  %28 = mul nsw i32 %25, %27
  %29 = load ptr, ptr %9, align 8, !tbaa !13
  %30 = call noundef i32 @_ZNK3gmx11BasicVectorIiEixEi(ptr noundef nonnull align 4 dereferenceable(12) %29, i32 noundef 2)
  %31 = mul nsw i32 %28, %30
  %32 = icmp sgt i32 %31, 1
  br label %33

33:                                               ; preds = %23, %5
  %34 = phi i1 [ false, %5 ], [ %32, %23 ]
  %35 = zext i1 %34 to i8
  store i8 %35, ptr %20, align 1, !tbaa !23
  %36 = getelementptr inbounds nuw %"struct.gmx::GridSet::DomainSetup", ptr %13, i32 0, i32 4
  %37 = load ptr, ptr %10, align 8, !tbaa !15
  store ptr %37, ptr %36, align 8, !tbaa !24
  call void @llvm.lifetime.start.p0(i64 4, ptr %11) #15
  store i32 0, ptr %11, align 4, !tbaa !25
  br label %38

38:                                               ; preds = %57, %33
  %39 = load i32, ptr %11, align 4, !tbaa !25
  %40 = icmp slt i32 %39, 3
  br i1 %40, label %42, label %41

41:                                               ; preds = %38
  call void @llvm.lifetime.end.p0(i64 4, ptr %11) #15
  br label %60

42:                                               ; preds = %38
  %43 = load ptr, ptr %9, align 8, !tbaa !13
  %44 = icmp ne ptr %43, null
  br i1 %44, label %45, label %50

45:                                               ; preds = %42
  %46 = load ptr, ptr %9, align 8, !tbaa !13
  %47 = load i32, ptr %11, align 4, !tbaa !25
  %48 = call noundef i32 @_ZNK3gmx11BasicVectorIiEixEi(ptr noundef nonnull align 4 dereferenceable(12) %46, i32 noundef %47)
  %49 = icmp sgt i32 %48, 1
  br label %50

50:                                               ; preds = %45, %42
  %51 = phi i1 [ false, %42 ], [ %49, %45 ]
  %52 = getelementptr inbounds nuw %"struct.gmx::GridSet::DomainSetup", ptr %13, i32 0, i32 3
  %53 = load i32, ptr %11, align 4, !tbaa !25
  %54 = sext i32 %53 to i64
  %55 = call noundef nonnull align 1 dereferenceable(1) ptr @_ZNSt5arrayIbLm3EEixEm(ptr noundef nonnull align 1 dereferenceable(3) %52, i64 noundef %54) #15
  %56 = zext i1 %51 to i8
  store i8 %56, ptr %55, align 1, !tbaa !11
  br label %57

57:                                               ; preds = %50
  %58 = load i32, ptr %11, align 4, !tbaa !25
  %59 = add nsw i32 %58, 1
  store i32 %59, ptr %11, align 4, !tbaa !25
  br label %38, !llvm.loop !27

60:                                               ; preds = %41
  ret void
}