; Function Attrs: mustprogress nofree norecurse nosync nounwind memory(argmem: readwrite) uwtable
define void @_ZN3gmx7GridSet11DomainSetupC2E7PbcTypebPKNS_11BasicVectorIiEEPKNS_11DomdecZonesE(ptr noundef nonnull writeonly align 8 captures(none) dereferenceable(24) initializes((0, 6), (16, 24)) %0, i32 noundef %1, i1 noundef zeroext %2, ptr noundef readonly %3, ptr noundef %4) unnamed_addr #0 align 2 {
  %6 = zext i1 %2 to i8
  store i32 %1, ptr %0, align 8, !tbaa !4
  %7 = getelementptr inbounds nuw i8, ptr %0, i64 4
  store i8 %6, ptr %7, align 4, !tbaa !13
  %8 = getelementptr inbounds nuw i8, ptr %0, i64 5
  %.not = icmp eq ptr %3, null
  br i1 %.not, label %.split.us.preheader, label %.split.preheader

.split.preheader:                                 ; preds = %5
  %9 = load i32, ptr %3, align 4, !tbaa !14
  %10 = getelementptr inbounds nuw i8, ptr %3, i64 4
  %11 = load i32, ptr %10, align 4, !tbaa !14
  %12 = mul nsw i32 %11, %9
  %13 = getelementptr inbounds nuw i8, ptr %3, i64 8
  %14 = load i32, ptr %13, align 4, !tbaa !14
  %15 = mul nsw i32 %12, %14
  %16 = icmp sgt i32 %15, 1
  %17 = zext i1 %16 to i8
  store i8 %17, ptr %8, align 1, !tbaa !16
  %18 = getelementptr inbounds nuw i8, ptr %0, i64 16
  store ptr %4, ptr %18, align 8, !tbaa !17
  %19 = getelementptr inbounds nuw i8, ptr %0, i64 6
  br label %.split

.split.us.preheader:                              ; preds = %5
  store i8 0, ptr %8, align 1, !tbaa !16
  %20 = getelementptr inbounds nuw i8, ptr %0, i64 16
  store ptr %4, ptr %20, align 8, !tbaa !17
  %21 = getelementptr inbounds nuw i8, ptr %0, i64 6
  tail call void @llvm.memset.p0.i64(ptr noundef nonnull align 2 dereferenceable(3) %21, i8 0, i64 3, i1 false), !tbaa !18
  br label %.split16.us

.split16.us:                                      ; preds = %.split, %.split.us.preheader
  ret void

.split:                                           ; preds = %.split.preheader, %.split
  %indvars.iv = phi i64 [ 0, %.split.preheader ], [ %indvars.iv.next, %.split ]
  %22 = getelementptr inbounds nuw [3 x i32], ptr %3, i64 0, i64 %indvars.iv
  %23 = load i32, ptr %22, align 4, !tbaa !14
  %24 = icmp sgt i32 %23, 1
  %25 = zext i1 %24 to i8
  %26 = getelementptr inbounds nuw [3 x i8], ptr %19, i64 0, i64 %indvars.iv
  store i8 %25, ptr %26, align 1, !tbaa !18
  %indvars.iv.next = add nuw nsw i64 %indvars.iv, 1
  %exitcond.not = icmp eq i64 %indvars.iv.next, 3
  br i1 %exitcond.not, label %.split16.us, label %.split, !llvm.loop !19
}